; Function Attrs: null_pointer_is_valid sspstrong uwtable
define internal i32 @dissect_Server_GetProvIDs_resp(ptr noundef %0, i32 noundef %1, ptr noundef %2, ptr noundef %3, ptr noundef %4, ptr noundef %5) #0 {
  %7 = alloca i32, align 4
  %8 = alloca i32, align 4
  %9 = alloca i32, align 4
  %10 = alloca i32, align 4
  %11 = alloca i32, align 4
  call void @llvm.lifetime.start.p0(i64 4, ptr nonnull %7) #12
  call void @llvm.lifetime.start.p0(i64 4, ptr nonnull %8) #12
  call void @llvm.lifetime.start.p0(i64 4, ptr nonnull %9) #12
  call void @llvm.lifetime.start.p0(i64 4, ptr nonnull %10) #12
  call void @llvm.lifetime.start.p0(i64 4, ptr nonnull %11) #12
  %12 = tail call i32 @dissect_dcom_that(ptr noundef %0, i32 noundef %1, ptr noundef %2, ptr noundef %3, ptr noundef %4, ptr noundef %5)
  %13 = load i32, ptr @hf_cba_acco_count, align 4
  %14 = call i32 @dissect_ndr_uint32(ptr noundef %0, i32 noundef %12, ptr noundef %2, ptr noundef %3, ptr noundef %4, ptr noundef %5, i32 noundef %13, ptr noundef nonnull %7)
  %15 = load i32, ptr %7, align 4
  %.not = icmp eq i32 %15, 0
  %16 = getelementptr inbounds nuw i8, ptr %2, i64 8
  %17 = load ptr, ptr %16, align 8
  br i1 %.not, label %19, label %18

18:                                               ; preds = %6
  call void (ptr, i32, ptr, ...) @col_append_fstr(ptr noundef %17, i32 noundef 25, ptr noundef nonnull @.str.276, i32 noundef %15)
  br label %20

19:                                               ; preds = %6
  call void (ptr, i32, ptr, ...) @col_append_fstr(ptr noundef %17, i32 noundef 25, ptr noundef nonnull @.str.260, i32 noundef 0)
  br label %20

20:                                               ; preds = %19, %18
  %21 = call i32 @dissect_dcom_dcerpc_pointer(ptr noundef %0, i32 noundef %14, ptr noundef %2, ptr noundef %3, ptr noundef %4, ptr noundef %5, ptr noundef nonnull %8)
  %22 = load i32, ptr %8, align 4
  %.not50 = icmp eq i32 %22, 0
  br i1 %.not50, label %.loopexit, label %23

23:                                               ; preds = %20
  %24 = call i32 @dissect_dcom_dcerpc_array_size(ptr noundef %0, i32 noundef %21, ptr noundef %2, ptr noundef %3, ptr noundef %4, ptr noundef %5, ptr noundef nonnull %9)
  %25 = load i32, ptr %9, align 4
  %26 = add i32 %25, -1
  store i32 %26, ptr %9, align 4
  %.not5152 = icmp eq i32 %25, 0
  br i1 %.not5152, label %.loopexit, label %.lr.ph

.lr.ph:                                           ; preds = %23
  %27 = getelementptr inbounds nuw i8, ptr %2, i64 8
  br label %28

28:                                               ; preds = %.lr.ph, %44
  %.054 = phi i32 [ 1, %.lr.ph ], [ %45, %44 ]
  %.153 = phi i32 [ %24, %.lr.ph ], [ %30, %44 ]
  %29 = load i32, ptr @hf_cba_acco_conn_prov_id, align 4
  %30 = call i32 @dissect_dcom_indexed_DWORD(ptr noundef %0, i32 noundef %.153, ptr noundef %2, ptr noundef %3, ptr noundef %4, ptr noundef %5, i32 noundef %29, ptr noundef nonnull %10, i32 noundef %.054)
  %31 = icmp eq i32 %.054, 1
  br i1 %31, label %32, label %35

32:                                               ; preds = %28
  %33 = load ptr, ptr %27, align 8
  %34 = load i32, ptr %10, align 4
  call void (ptr, i32, ptr, ...) @col_append_fstr(ptr noundef %33, i32 noundef 25, ptr noundef nonnull @.str.266, i32 noundef %34)
  br label %44

35:                                               ; preds = %28
  %36 = icmp ult i32 %.054, 10
  br i1 %36, label %37, label %40

37:                                               ; preds = %35
  %38 = load ptr, ptr %27, align 8
  %39 = load i32, ptr %10, align 4
  call void (ptr, i32, ptr, ...) @col_append_fstr(ptr noundef %38, i32 noundef 25, ptr noundef nonnull @.str.267, i32 noundef %39)
  br label %44

40:                                               ; preds = %35
  %41 = icmp eq i32 %.054, 10
  br i1 %41, label %42, label %44

42:                                               ; preds = %40
  %43 = load ptr, ptr %27, align 8
  call void @col_append_str(ptr noundef %43, i32 noundef 25, ptr noundef nonnull @.str.268)
  br label %44

44:                                               ; preds = %37, %42, %40, %32
  %45 = add i32 %.054, 1
  %46 = load i32, ptr %9, align 4
  %47 = add i32 %46, -1
  store i32 %47, ptr %9, align 4
  %.not51 = icmp eq i32 %46, 0
  br i1 %.not51, label %.loopexit, label %28, !llvm.loop !23

.loopexit:                                        ; preds = %44, %23, %20
  %.047 = phi i32 [ %21, %20 ], [ %24, %23 ], [ %30, %44 ]
  %48 = call i32 @dissect_dcom_HRESULT(ptr noundef %0, i32 noundef %.047, ptr noundef %2, ptr noundef %3, ptr noundef %4, ptr noundef %5, ptr noundef nonnull %11)
  %49 = getelementptr inbounds nuw i8, ptr %2, i64 8
  %50 = load ptr, ptr %49, align 8
  %51 = load i32, ptr %11, align 4
  %52 = call ptr @val_to_str(i32 noundef %51, ptr noundef nonnull @dcom_hresult_vals, ptr noundef nonnull @.str.259)
  call void (ptr, i32, ptr, ...) @col_append_fstr(ptr noundef %50, i32 noundef 25, ptr noundef nonnull @.str.261, ptr noundef %52)
  call void @llvm.lifetime.end.p0(i64 4, ptr nonnull %11) #12
  call void @llvm.lifetime.end.p0(i64 4, ptr nonnull %10) #12
  call void @llvm.lifetime.end.p0(i64 4, ptr nonnull %9) #12
  call void @llvm.lifetime.end.p0(i64 4, ptr nonnull %8) #12
  call void @llvm.lifetime.end.p0(i64 4, ptr nonnull %7) #12
  ret i32 %48
}